target datalayout = "e-m:e-p270:32:32-p271:32:32-p272:64:64-i64:64-i128:128-f80:128-n8:16:32:64-S128"
target triple = "x86_64-pc-linux-gnu"

@lambda_tbl = hidden global [283 x double] zeroinitializer, align 16
@rgb_tbl = hidden global [3 x [283 x double]] zeroinitializer, align 16
@rgb_to_xyz = hidden global [3 x [3 x double]] zeroinitializer, align 16
@xyz_to_rgb = hidden global [3 x [3 x double]] zeroinitializer, align 16
@xyz_whitepoint = hidden global [3 x double] zeroinitializer, align 16
@_ZL10xyz_to_xyz = internal constant [3 x [3 x double]] [[3 x double] [double 1.000000e+00, double 0.000000e+00, double 0.000000e+00], [3 x double] [double 0.000000e+00, double 1.000000e+00, double 0.000000e+00], [3 x double] [double 0.000000e+00, double 0.000000e+00, double 1.000000e+00]], align 16
@.str = private unnamed_addr constant [41 x i8] c"init_gamut(): invalid/unsupported gamut.\00", align 1
@_ZTISt13runtime_error = external constant ptr

; Function Attrs: mustprogress nounwind uwtable
define hidden noundef double @_Z10cie_interpPKdd(ptr noundef %0, double noundef %1) #0 {
  %3 = alloca ptr, align 8
  %4 = alloca double, align 8
  %5 = alloca i32, align 4
  %6 = alloca double, align 8
  store ptr %0, ptr %3, align 8
  store double %1, ptr %4, align 8
  %7 = load double, ptr %4, align 8
  %8 = fsub contract double %7, 3.600000e+02
  store double %8, ptr %4, align 8
  %9 = load double, ptr %4, align 8
  %10 = fmul contract double %9, 2.000000e-01
  store double %10, ptr %4, align 8
  %11 = load double, ptr %4, align 8
  %12 = fptosi double %11 to i32
  store i32 %12, ptr %5, align 4
  %13 = load i32, ptr %5, align 4
  %14 = icmp slt i32 %13, 0
  br i1 %14, label %15, label %16

15:                                               ; preds = %2
  store i32 0, ptr %5, align 4
  br label %16

16:                                               ; preds = %15, %2
  %17 = load i32, ptr %5, align 4
  %18 = icmp sgt i32 %17, 93
  br i1 %18, label %19, label %20

19:                                               ; preds = %16
  store i32 93, ptr %5, align 4
  br label %20

20:                                               ; preds = %19, %16
  %21 = load double, ptr %4, align 8
  %22 = load i32, ptr %5, align 4
  %23 = sitofp i32 %22 to double
  %24 = fsub contract double %21, %23
  store double %24, ptr %6, align 8
  %25 = load double, ptr %6, align 8
  %26 = fsub contract double 1.000000e+00, %25
  %27 = load ptr, ptr %3, align 8
  %28 = load i32, ptr %5, align 4
  %29 = sext i32 %28 to i64
  %30 = getelementptr inbounds double, ptr %27, i64 %29
  %31 = load double, ptr %30, align 8
  %32 = fmul contract double %26, %31
  %33 = load double, ptr %6, align 8
  %34 = load ptr, ptr %3, align 8
  %35 = load i32, ptr %5, align 4
  %36 = add nsw i32 %35, 1
  %37 = sext i32 %36 to i64
  %38 = getelementptr inbounds double, ptr %34, i64 %37
  %39 = load double, ptr %38, align 8
  %40 = fmul contract double %33, %39
  %41 = fadd contract double %32, %40
  ret double %41
}

; Function Attrs: mustprogress uwtable
define hidden void @_Z11init_tables5Gamut(i32 noundef %0) #2 personality ptr @__gxx_personality_v0 {
  %2 = alloca i32, align 4
  %3 = alloca double, align 8
  %4 = alloca ptr, align 8
  %5 = alloca ptr, align 8
  %6 = alloca i32, align 4
  %7 = alloca i32, align 4
  %8 = alloca double, align 8
  %9 = alloca [3 x double], align 16
  %10 = alloca double, align 8
  %11 = alloca double, align 8
  %12 = alloca i32, align 4
  %13 = alloca i32, align 4
  %14 = alloca i32, align 4
  store i32 %0, ptr %2, align 4
  call void @llvm.memset.p0.i64(ptr align 16 @rgb_tbl, i8 0, i64 6792, i1 false)
  call void @llvm.memset.p0.i64(ptr align 16 @xyz_whitepoint, i8 0, i64 24, i1 false)
  store double 0x3FFAAAAAAAAAAAAB, ptr %3, align 8
  store ptr null, ptr %4, align 8
  %15 = load i32, ptr %2, align 4
  switch i32 %15, label %22 [
    i32 0, label %16
    i32 4, label %17
    i32 5, label %18
    i32 1, label %19
    i32 2, label %20
    i32 3, label %21
  ]

16:                                               ; preds = %1
  store ptr @_ZL7cie_d65, ptr %4, align 8
  call void @llvm.memcpy.p0.p0.i64(ptr align 16 @xyz_to_rgb, ptr align 16 @_ZL11xyz_to_srgb, i64 72, i1 false)
  call void @llvm.memcpy.p0.p0.i64(ptr align 16 @rgb_to_xyz, ptr align 16 @_ZL11srgb_to_xyz, i64 72, i1 false)
  br label %29

17:                                               ; preds = %1
  store ptr @_ZL5cie_e, ptr %4, align 8
  call void @llvm.memcpy.p0.p0.i64(ptr align 16 @xyz_to_rgb, ptr align 16 @_ZL11xyz_to_ergb, i64 72, i1 false)
  call void @llvm.memcpy.p0.p0.i64(ptr align 16 @rgb_to_xyz, ptr align 16 @_ZL11ergb_to_xyz, i64 72, i1 false)
  br label %29

18:                                               ; preds = %1
  store ptr @_ZL5cie_e, ptr %4, align 8
  call void @llvm.memcpy.p0.p0.i64(ptr align 16 @xyz_to_rgb, ptr align 16 @_ZL10xyz_to_xyz, i64 72, i1 false)
  call void @llvm.memcpy.p0.p0.i64(ptr align 16 @rgb_to_xyz, ptr align 16 @_ZL10xyz_to_xyz, i64 72, i1 false)
  br label %29

19:                                               ; preds = %1
  store ptr @_ZL7cie_d50, ptr %4, align 8
  call void @llvm.memcpy.p0.p0.i64(ptr align 16 @xyz_to_rgb, ptr align 16 @_ZL19xyz_to_prophoto_rgb, i64 72, i1 false)
  call void @llvm.memcpy.p0.p0.i64(ptr align 16 @rgb_to_xyz, ptr align 16 @_ZL19prophoto_rgb_to_xyz, i64 72, i1 false)
  br label %29

20:                                               ; preds = %1
  store ptr @_ZL7cie_d60, ptr %4, align 8
  call void @llvm.memcpy.p0.p0.i64(ptr align 16 @xyz_to_rgb, ptr align 16 @_ZL17xyz_to_aces2065_1, i64 72, i1 false)
  call void @llvm.memcpy.p0.p0.i64(ptr align 16 @rgb_to_xyz, ptr align 16 @_ZL17aces2065_1_to_xyz, i64 72, i1 false)
  br label %29

21:                                               ; preds = %1
  store ptr @_ZL7cie_d65, ptr %4, align 8
  call void @llvm.memcpy.p0.p0.i64(ptr align 16 @xyz_to_rgb, ptr align 16 @_ZL14xyz_to_rec2020, i64 72, i1 false)
  call void @llvm.memcpy.p0.p0.i64(ptr align 16 @rgb_to_xyz, ptr align 16 @_ZL14rec2020_to_xyz, i64 72, i1 false)
  br label %29

22:                                               ; preds = %1
  %23 = call ptr @__cxa_allocate_exception(i64 16) #14
  invoke void @_ZNSt13runtime_errorC1EPKc(ptr noundef nonnull align 8 dereferenceable(16) %23, ptr noundef @.str)
          to label %24 unwind label %25

24:                                               ; preds = %22
  call void @__cxa_throw(ptr %23, ptr @_ZTISt13runtime_error, ptr @_ZNSt13runtime_errorD1Ev) #17
  unreachable

25:                                               ; preds = %22
  %26 = landingpad { ptr, i32 }
          cleanup
  %27 = extractvalue { ptr, i32 } %26, 0
  store ptr %27, ptr %5, align 8
  %28 = extractvalue { ptr, i32 } %26, 1
  store i32 %28, ptr %6, align 4
  call void @__cxa_free_exception(ptr %23) #14
  br label %141

29:                                               ; preds = %21, %20, %19, %18, %17, %16
  store i32 0, ptr %7, align 4
  br label %30

30:                                               ; preds = %137, %29
  %31 = load i32, ptr %7, align 4
  %32 = icmp slt i32 %31, 283
  br i1 %32, label %33, label %140

33:                                               ; preds = %30
  %34 = load i32, ptr %7, align 4
  %35 = sitofp i32 %34 to double
  %36 = load double, ptr %3, align 8
  %37 = fmul contract double %35, %36
  %38 = fadd contract double 3.600000e+02, %37
  store double %38, ptr %8, align 8
  %39 = getelementptr inbounds [3 x double], ptr %9, i64 0, i64 0
  %40 = load double, ptr %8, align 8
  %41 = call contract noundef double @_Z10cie_interpPKdd(ptr noundef @_ZL5cie_x, double noundef %40)
  store double %41, ptr %39, align 8
  %42 = getelementptr inbounds double, ptr %39, i64 1
  %43 = load double, ptr %8, align 8
  %44 = call contract noundef double @_Z10cie_interpPKdd(ptr noundef @_ZL5cie_y, double noundef %43)
  store double %44, ptr %42, align 8
  %45 = getelementptr inbounds double, ptr %42, i64 1
  %46 = load double, ptr %8, align 8
  %47 = call contract noundef double @_Z10cie_interpPKdd(ptr noundef @_ZL5cie_z, double noundef %46)
  store double %47, ptr %45, align 8
  %48 = load ptr, ptr %4, align 8
  %49 = load double, ptr %8, align 8
  %50 = call contract noundef double @_Z10cie_interpPKdd(ptr noundef %48, double noundef %49)
  store double %50, ptr %10, align 8
  %51 = load double, ptr %3, align 8
  %52 = fmul contract double 3.750000e-01, %51
  store double %52, ptr %11, align 8
  %53 = load i32, ptr %7, align 4
  %54 = icmp eq i32 %53, 0
  br i1 %54, label %58, label %55

55:                                               ; preds = %33
  %56 = load i32, ptr %7, align 4
  %57 = icmp eq i32 %56, 282
  br i1 %57, label %58, label %59

58:                                               ; preds = %55, %33
  br label %71

59:                                               ; preds = %55
  %60 = load i32, ptr %7, align 4
  %61 = sub nsw i32 %60, 1
  %62 = srem i32 %61, 3
  %63 = icmp eq i32 %62, 2
  br i1 %63, label %64, label %67

64:                                               ; preds = %59
  %65 = load double, ptr %11, align 8
  %66 = fmul contract double %65, 2.000000e+00
  store double %66, ptr %11, align 8
  br label %70

67:                                               ; preds = %59
  %68 = load double, ptr %11, align 8
  %69 = fmul contract double %68, 3.000000e+00
  store double %69, ptr %11, align 8
  br label %70

70:                                               ; preds = %67, %64
  br label %71

71:                                               ; preds = %70, %58
  %72 = load double, ptr %8, align 8
  %73 = load i32, ptr %7, align 4
  %74 = sext i32 %73 to i64
  %75 = getelementptr inbounds [283 x double], ptr @lambda_tbl, i64 0, i64 %74
  store double %72, ptr %75, align 8
  store i32 0, ptr %12, align 4
  br label %76

76:                                               ; preds = %112, %71
  %77 = load i32, ptr %12, align 4
  %78 = icmp slt i32 %77, 3
  br i1 %78, label %79, label %115

79:                                               ; preds = %76
  store i32 0, ptr %13, align 4
  br label %80

80:                                               ; preds = %108, %79
  %81 = load i32, ptr %13, align 4
  %82 = icmp slt i32 %81, 3
  br i1 %82, label %83, label %111

83:                                               ; preds = %80
  %84 = load i32, ptr %12, align 4
  %85 = sext i32 %84 to i64
  %86 = getelementptr inbounds [3 x [3 x double]], ptr @xyz_to_rgb, i64 0, i64 %85
  %87 = load i32, ptr %13, align 4
  %88 = sext i32 %87 to i64
  %89 = getelementptr inbounds [3 x double], ptr %86, i64 0, i64 %88
  %90 = load double, ptr %89, align 8
  %91 = load i32, ptr %13, align 4
  %92 = sext i32 %91 to i64
  %93 = getelementptr inbounds [3 x double], ptr %9, i64 0, i64 %92
  %94 = load double, ptr %93, align 8
  %95 = fmul contract double %90, %94
  %96 = load double, ptr %10, align 8
  %97 = fmul contract double %95, %96
  %98 = load double, ptr %11, align 8
  %99 = fmul contract double %97, %98
  %100 = load i32, ptr %12, align 4
  %101 = sext i32 %100 to i64
  %102 = getelementptr inbounds [3 x [283 x double]], ptr @rgb_tbl, i64 0, i64 %101
  %103 = load i32, ptr %7, align 4
  %104 = sext i32 %103 to i64
  %105 = getelementptr inbounds [283 x double], ptr %102, i64 0, i64 %104
  %106 = load double, ptr %105, align 8
  %107 = fadd contract double %106, %99
  store double %107, ptr %105, align 8
  br label %108

108:                                              ; preds = %83
  %109 = load i32, ptr %13, align 4
  %110 = add nsw i32 %109, 1
  store i32 %110, ptr %13, align 4
  br label %80, !llvm.loop !17

111:                                              ; preds = %80
  br label %112

112:                                              ; preds = %111
  %113 = load i32, ptr %12, align 4
  %114 = add nsw i32 %113, 1
  store i32 %114, ptr %12, align 4
  br label %76, !llvm.loop !18

115:                                              ; preds = %76
  store i32 0, ptr %14, align 4
  br label %116

116:                                              ; preds = %133, %115
  %117 = load i32, ptr %14, align 4
  %118 = icmp slt i32 %117, 3
  br i1 %118, label %119, label %136

119:                                              ; preds = %116
  %120 = load i32, ptr %14, align 4
  %121 = sext i32 %120 to i64
  %122 = getelementptr inbounds [3 x double], ptr %9, i64 0, i64 %121
  %123 = load double, ptr %122, align 8
  %124 = load double, ptr %10, align 8
  %125 = fmul contract double %123, %124
  %126 = load double, ptr %11, align 8
  %127 = fmul contract double %125, %126
  %128 = load i32, ptr %14, align 4
  %129 = sext i32 %128 to i64
  %130 = getelementptr inbounds [3 x double], ptr @xyz_whitepoint, i64 0, i64 %129
  %131 = load double, ptr %130, align 8
  %132 = fadd contract double %131, %127
  store double %132, ptr %130, align 8
  br label %133

133:                                              ; preds = %119
  %134 = load i32, ptr %14, align 4
  %135 = add nsw i32 %134, 1
  store i32 %135, ptr %14, align 4
  br label %116, !llvm.loop !19

136:                                              ; preds = %116
  br label %137

137:                                              ; preds = %136
  %138 = load i32, ptr %7, align 4
  %139 = add nsw i32 %138, 1
  store i32 %139, ptr %7, align 4
  br label %30, !llvm.loop !20

140:                                              ; preds = %30
  ret void

141:                                              ; preds = %25
  %142 = load ptr, ptr %5, align 8
  %143 = load i32, ptr %6, align 4
  %144 = insertvalue { ptr, i32 } poison, ptr %142, 0
  %145 = insertvalue { ptr, i32 } %144, i32 %143, 1
  resume { ptr, i32 } %145
}