; Function Attrs: mustprogress uwtable
define hidden void @_Z11init_tables5Gamut(i32 noundef %0) local_unnamed_addr #7 personality ptr @__gxx_personality_v0 {
  %2 = alloca [3 x double], align 16
  tail call void @llvm.memset.p0.i64(ptr noundef nonnull align 16 dereferenceable(6792) @rgb_tbl, i8 0, i64 6792, i1 false)
  tail call void @llvm.memset.p0.i64(ptr noundef nonnull align 16 dereferenceable(24) @xyz_whitepoint, i8 0, i64 24, i1 false)
  switch i32 %0, label %9 [
    i32 0, label %3
    i32 4, label %4
    i32 5, label %5
    i32 1, label %6
    i32 2, label %7
    i32 3, label %8
  ]

3:                                                ; preds = %1
  tail call void @llvm.memcpy.p0.p0.i64(ptr noundef nonnull align 16 dereferenceable(72) @xyz_to_rgb, ptr noundef nonnull align 16 dereferenceable(72) @_ZL11xyz_to_srgb, i64 72, i1 false)
  tail call void @llvm.memcpy.p0.p0.i64(ptr noundef nonnull align 16 dereferenceable(72) @rgb_to_xyz, ptr noundef nonnull align 16 dereferenceable(72) @_ZL11srgb_to_xyz, i64 72, i1 false)
  br label %14

4:                                                ; preds = %1
  tail call void @llvm.memcpy.p0.p0.i64(ptr noundef nonnull align 16 dereferenceable(72) @xyz_to_rgb, ptr noundef nonnull align 16 dereferenceable(72) @_ZL11xyz_to_ergb, i64 72, i1 false)
  tail call void @llvm.memcpy.p0.p0.i64(ptr noundef nonnull align 16 dereferenceable(72) @rgb_to_xyz, ptr noundef nonnull align 16 dereferenceable(72) @_ZL11ergb_to_xyz, i64 72, i1 false)
  br label %14

5:                                                ; preds = %1
  tail call void @llvm.memcpy.p0.p0.i64(ptr noundef nonnull align 16 dereferenceable(72) @xyz_to_rgb, ptr noundef nonnull align 16 dereferenceable(72) @_ZL10xyz_to_xyz, i64 72, i1 false)
  tail call void @llvm.memcpy.p0.p0.i64(ptr noundef nonnull align 16 dereferenceable(72) @rgb_to_xyz, ptr noundef nonnull align 16 dereferenceable(72) @_ZL10xyz_to_xyz, i64 72, i1 false)
  br label %14

6:                                                ; preds = %1
  tail call void @llvm.memcpy.p0.p0.i64(ptr noundef nonnull align 16 dereferenceable(72) @xyz_to_rgb, ptr noundef nonnull align 16 dereferenceable(72) @_ZL19xyz_to_prophoto_rgb, i64 72, i1 false)
  tail call void @llvm.memcpy.p0.p0.i64(ptr noundef nonnull align 16 dereferenceable(72) @rgb_to_xyz, ptr noundef nonnull align 16 dereferenceable(72) @_ZL19prophoto_rgb_to_xyz, i64 72, i1 false)
  br label %14

7:                                                ; preds = %1
  tail call void @llvm.memcpy.p0.p0.i64(ptr noundef nonnull align 16 dereferenceable(72) @xyz_to_rgb, ptr noundef nonnull align 16 dereferenceable(72) @_ZL17xyz_to_aces2065_1, i64 72, i1 false)
  tail call void @llvm.memcpy.p0.p0.i64(ptr noundef nonnull align 16 dereferenceable(72) @rgb_to_xyz, ptr noundef nonnull align 16 dereferenceable(72) @_ZL17aces2065_1_to_xyz, i64 72, i1 false)
  br label %14

8:                                                ; preds = %1
  tail call void @llvm.memcpy.p0.p0.i64(ptr noundef nonnull align 16 dereferenceable(72) @xyz_to_rgb, ptr noundef nonnull align 16 dereferenceable(72) @_ZL14xyz_to_rec2020, i64 72, i1 false)
  tail call void @llvm.memcpy.p0.p0.i64(ptr noundef nonnull align 16 dereferenceable(72) @rgb_to_xyz, ptr noundef nonnull align 16 dereferenceable(72) @_ZL14rec2020_to_xyz, i64 72, i1 false)
  br label %14

9:                                                ; preds = %1
  %10 = tail call ptr @__cxa_allocate_exception(i64 16) #20
  invoke void @_ZNSt13runtime_errorC1EPKc(ptr noundef nonnull align 8 dereferenceable(16) %10, ptr noundef nonnull @.str)
          to label %11 unwind label %12

11:                                               ; preds = %9
  tail call void @__cxa_throw(ptr nonnull %10, ptr nonnull @_ZTISt13runtime_error, ptr nonnull @_ZNSt13runtime_errorD1Ev) #26
  unreachable

12:                                               ; preds = %9
  %13 = landingpad { ptr, i32 }
          cleanup
  tail call void @__cxa_free_exception(ptr %10) #20
  resume { ptr, i32 } %13

14:                                               ; preds = %8, %7, %6, %5, %4, %3
  %.040 = phi ptr [ @_ZL7cie_d65, %8 ], [ @_ZL7cie_d60, %7 ], [ @_ZL7cie_d50, %6 ], [ @_ZL5cie_e, %5 ], [ @_ZL5cie_e, %4 ], [ @_ZL7cie_d65, %3 ]
  %15 = getelementptr inbounds i8, ptr %2, i64 8
  %16 = getelementptr inbounds i8, ptr %2, i64 16
  br label %17

17:                                               ; preds = %14, %82
  %indvars.iv62 = phi i64 [ 0, %14 ], [ %indvars.iv.next63, %82 ]
  %18 = trunc i64 %indvars.iv62 to i32
  %19 = sitofp i32 %18 to double
  %20 = fmul contract double %19, 0x3FFAAAAAAAAAAAAB
  %21 = fadd contract double %20, 3.600000e+02
  %22 = fadd contract double %21, -3.600000e+02
  %23 = fmul contract double %22, 2.000000e-01
  %24 = fptosi double %23 to i32
  %spec.store.select.i = tail call i32 @llvm.smax.i32(i32 %24, i32 0)
  %spec.store.select1.i = tail call i32 @llvm.umin.i32(i32 %spec.store.select.i, i32 93)
  %25 = sitofp i32 %spec.store.select1.i to double
  %26 = fsub contract double %23, %25
  %27 = fsub contract double 1.000000e+00, %26
  %28 = zext nneg i32 %spec.store.select1.i to i64
  %29 = getelementptr inbounds double, ptr @_ZL5cie_x, i64 %28
  %30 = load double, ptr %29, align 8
  %31 = fmul contract double %27, %30
  %32 = getelementptr i8, ptr %29, i64 8
  %33 = load double, ptr %32, align 8
  %34 = fmul contract double %26, %33
  %35 = fadd contract double %31, %34
  store double %35, ptr %2, align 16
  %36 = getelementptr inbounds double, ptr @_ZL5cie_y, i64 %28
  %37 = load double, ptr %36, align 8
  %38 = fmul contract double %27, %37
  %39 = getelementptr i8, ptr %36, i64 8
  %40 = load double, ptr %39, align 8
  %41 = fmul contract double %26, %40
  %42 = fadd contract double %38, %41
  store double %42, ptr %15, align 8
  %43 = getelementptr inbounds double, ptr @_ZL5cie_z, i64 %28
  %44 = load double, ptr %43, align 8
  %45 = fmul contract double %27, %44
  %46 = getelementptr i8, ptr %43, i64 8
  %47 = load double, ptr %46, align 8
  %48 = fmul contract double %26, %47
  %49 = fadd contract double %45, %48
  store double %49, ptr %16, align 16
  %50 = getelementptr inbounds double, ptr %.040, i64 %28
  %51 = load double, ptr %50, align 8
  %52 = fmul contract double %27, %51
  %53 = getelementptr i8, ptr %50, i64 8
  %54 = load double, ptr %53, align 8
  %55 = fmul contract double %26, %54
  %56 = fadd contract double %52, %55
  switch i32 %18, label %57 [
    i32 282, label %61
    i32 0, label %61
  ]

57:                                               ; preds = %17
  %58 = trunc i64 %indvars.iv62 to i16
  %.lhs.trunc = add nsw i16 %58, -1
  %59 = urem i16 %.lhs.trunc, 3
  %60 = icmp eq i16 %59, 2
  %. = select i1 %60, double 1.250000e+00, double 1.875000e+00
  br label %61

61:                                               ; preds = %57, %17, %17
  %.039 = phi double [ 6.250000e-01, %17 ], [ 6.250000e-01, %17 ], [ %., %57 ]
  %62 = getelementptr inbounds [283 x double], ptr @lambda_tbl, i64 0, i64 %indvars.iv62
  store double %21, ptr %62, align 8
  br label %.preheader

.preheader:                                       ; preds = %61, %74
  %indvars.iv54 = phi i64 [ 0, %61 ], [ %indvars.iv.next55, %74 ]
  %63 = getelementptr inbounds [3 x [283 x double]], ptr @rgb_tbl, i64 0, i64 %indvars.iv54, i64 %indvars.iv62
  %.promoted = load double, ptr %63, align 8
  br label %64

64:                                               ; preds = %.preheader, %64
  %indvars.iv = phi i64 [ 0, %.preheader ], [ %indvars.iv.next, %64 ]
  %65 = phi double [ %.promoted, %.preheader ], [ %73, %64 ]
  %66 = getelementptr inbounds [3 x [3 x double]], ptr @xyz_to_rgb, i64 0, i64 %indvars.iv54, i64 %indvars.iv
  %67 = load double, ptr %66, align 8
  %68 = getelementptr inbounds [3 x double], ptr %2, i64 0, i64 %indvars.iv
  %69 = load double, ptr %68, align 8
  %70 = fmul contract double %67, %69
  %71 = fmul contract double %56, %70
  %72 = fmul contract double %.039, %71
  %73 = fadd contract double %65, %72
  %indvars.iv.next = add nuw nsw i64 %indvars.iv, 1
  %exitcond.not = icmp eq i64 %indvars.iv.next, 3
  br i1 %exitcond.not, label %74, label %64, !llvm.loop !17

74:                                               ; preds = %64
  store double %73, ptr %63, align 8
  %indvars.iv.next55 = add nuw nsw i64 %indvars.iv54, 1
  %exitcond57.not = icmp eq i64 %indvars.iv.next55, 3
  br i1 %exitcond57.not, label %.preheader48, label %.preheader, !llvm.loop !18

.preheader48:                                     ; preds = %74, %.preheader48
  %indvars.iv58 = phi i64 [ %indvars.iv.next59, %.preheader48 ], [ 0, %74 ]
  %75 = getelementptr inbounds [3 x double], ptr %2, i64 0, i64 %indvars.iv58
  %76 = load double, ptr %75, align 8
  %77 = fmul contract double %56, %76
  %78 = fmul contract double %.039, %77
  %79 = getelementptr inbounds [3 x double], ptr @xyz_whitepoint, i64 0, i64 %indvars.iv58
  %80 = load double, ptr %79, align 8
  %81 = fadd contract double %80, %78
  store double %81, ptr %79, align 8
  %indvars.iv.next59 = add nuw nsw i64 %indvars.iv58, 1
  %exitcond61.not = icmp eq i64 %indvars.iv.next59, 3
  br i1 %exitcond61.not, label %82, label %.preheader48, !llvm.loop !19

82:                                               ; preds = %.preheader48
  %indvars.iv.next63 = add nuw nsw i64 %indvars.iv62, 1
  %exitcond65.not = icmp eq i64 %indvars.iv.next63, 283
  br i1 %exitcond65.not, label %83, label %17, !llvm.loop !20

83:                                               ; preds = %82
  ret void
}